target datalayout = "e-m:e-p270:32:32-p271:32:32-p272:64:64-i64:64-i128:128-f80:128-n8:16:32:64-S128"
target triple = "x86_64-pc-linux-gnu"

%struct.frag_info = type { i32, i32, i32, i32, i32, i32, i8, i8 }

@frags = internal global [100 x %struct.frag_info] zeroinitializer, align 16

; Function Attrs: nounwind null_pointer_is_valid sspstrong uwtable
define internal void @ncp_init_protocol() #3 {
  %1 = alloca i32, align 4
  call void @llvm.lifetime.start.p0(i64 4, ptr %1) #13
  store i32 0, ptr %1, align 4
  br label %2

2:                                                ; preds = %10, %0
  %3 = load i32, ptr %1, align 4
  %4 = icmp slt i32 %3, 99
  br i1 %4, label %5, label %13

5:                                                ; preds = %2
  %6 = load i32, ptr %1, align 4
  %7 = sext i32 %6 to i64
  %8 = getelementptr [100 x %struct.frag_info], ptr @frags, i64 0, i64 %7
  %9 = getelementptr inbounds nuw %struct.frag_info, ptr %8, i32 0, i32 5
  store i32 -16, ptr %9, align 4
  br label %10

10:                                               ; preds = %5
  %11 = load i32, ptr %1, align 4
  %12 = add i32 %11, 1
  store i32 %12, ptr %1, align 4
  br label %2, !llvm.loop !69

13:                                               ; preds = %2
  call void @llvm.lifetime.end.p0(i64 4, ptr %1) #13
  ret void
}