; Function Attrs: nofree norecurse nosync nounwind null_pointer_is_valid sspstrong memory(write, argmem: none, inaccessiblemem: none) uwtable
define internal void @ncp_init_protocol() #8 {
  br label %1

1:                                                ; preds = %0, %1
  %indvars.iv = phi i64 [ 0, %0 ], [ %indvars.iv.next, %1 ]
  %2 = getelementptr [100 x %struct.frag_info], ptr @frags, i64 0, i64 %indvars.iv, i32 5
  store i32 -16, ptr %2, align 4
  %indvars.iv.next = add nuw nsw i64 %indvars.iv, 1
  %exitcond.not = icmp eq i64 %indvars.iv.next, 99
  br i1 %exitcond.not, label %3, label %1, !llvm.loop !71

3:                                                ; preds = %1
  ret void
}